; Function Attrs: mustprogress uwtable
define dso_local noundef zeroext i1 @_ZN4Json6Reader9pushErrorERKNS_5ValueERKNSt7__cxx1112basic_stringIcSt11char_traitsIcESaIcEEE(ptr noundef nonnull align 8 dereferenceable(269) %0, ptr noundef nonnull align 8 dereferenceable(40) %1, ptr noundef nonnull align 8 dereferenceable(32) %2) local_unnamed_addr #6 align 2 personality ptr @__gxx_personality_v0 {
  %4 = alloca %"class.Json::Reader::ErrorInfo", align 8
  %5 = getelementptr inbounds i8, ptr %0, i64 200
  %6 = load ptr, ptr %5, align 8
  %7 = getelementptr inbounds i8, ptr %0, i64 192
  %8 = load ptr, ptr %7, align 8
  %9 = ptrtoint ptr %6 to i64
  %10 = ptrtoint ptr %8 to i64
  %11 = sub i64 %9, %10
  %12 = tail call noundef i64 @_ZNK4Json5Value14getOffsetStartEv(ptr noundef nonnull align 8 dereferenceable(40) %1)
  %13 = icmp sgt i64 %12, %11
  br i1 %13, label %43, label %14

14:                                               ; preds = %3
  %15 = tail call noundef i64 @_ZNK4Json5Value14getOffsetLimitEv(ptr noundef nonnull align 8 dereferenceable(40) %1)
  %16 = icmp sgt i64 %15, %11
  br i1 %16, label %43, label %17

17:                                               ; preds = %14
  %18 = load ptr, ptr %7, align 8
  %19 = tail call noundef i64 @_ZNK4Json5Value14getOffsetStartEv(ptr noundef nonnull align 8 dereferenceable(40) %1)
  %20 = getelementptr inbounds i8, ptr %18, i64 %19
  %21 = load ptr, ptr %7, align 8
  %22 = tail call noundef i64 @_ZNK4Json5Value14getOffsetLimitEv(ptr noundef nonnull align 8 dereferenceable(40) %1)
  %23 = getelementptr inbounds i8, ptr %21, i64 %22
  %24 = getelementptr inbounds i8, ptr %4, i64 24
  call void @_ZNSt7__cxx1112basic_stringIcSt11char_traitsIcESaIcEEC1Ev(ptr noundef nonnull align 8 dereferenceable(32) %24) #25
  store i32 13, ptr %4, align 8
  %.sroa.21.0..sroa_idx = getelementptr inbounds i8, ptr %4, i64 8
  store ptr %20, ptr %.sroa.21.0..sroa_idx, align 8
  %.sroa.3.0..sroa_idx = getelementptr inbounds i8, ptr %4, i64 16
  store ptr %23, ptr %.sroa.3.0..sroa_idx, align 8
  %25 = invoke noundef nonnull align 8 dereferenceable(32) ptr @_ZNSt7__cxx1112basic_stringIcSt11char_traitsIcESaIcEEaSERKS4_(ptr noundef nonnull align 8 dereferenceable(32) %24, ptr noundef nonnull align 8 dereferenceable(32) %2)
          to label %26 unwind label %41

26:                                               ; preds = %17
  %27 = getelementptr inbounds i8, ptr %4, i64 56
  store ptr null, ptr %27, align 8
  %28 = getelementptr inbounds i8, ptr %0, i64 128
  %29 = load ptr, ptr %28, align 8
  %30 = getelementptr inbounds i8, ptr %0, i64 144
  %31 = load ptr, ptr %30, align 8
  %32 = getelementptr inbounds i8, ptr %31, i64 -64
  %.not.i = icmp eq ptr %29, %32
  br i1 %.not.i, label %39, label %33

33:                                               ; preds = %26
  call void @llvm.memcpy.p0.p0.i64(ptr noundef nonnull align 8 dereferenceable(24) %29, ptr noundef nonnull align 8 dereferenceable(24) %4, i64 24, i1 false)
  %34 = getelementptr inbounds i8, ptr %29, i64 24
  invoke void @_ZNSt7__cxx1112basic_stringIcSt11char_traitsIcESaIcEEC1ERKS4_(ptr noundef nonnull align 8 dereferenceable(32) %34, ptr noundef nonnull align 8 dereferenceable(32) %24)
          to label %.noexc unwind label %41

.noexc:                                           ; preds = %33
  %35 = getelementptr inbounds i8, ptr %29, i64 56
  %36 = load ptr, ptr %27, align 8
  store ptr %36, ptr %35, align 8
  %37 = load ptr, ptr %28, align 8
  %38 = getelementptr inbounds i8, ptr %37, i64 64
  store ptr %38, ptr %28, align 8
  br label %_ZNSt5dequeIN4Json6Reader9ErrorInfoESaIS2_EE9push_backERKS2_.exit

39:                                               ; preds = %26
  %40 = getelementptr inbounds i8, ptr %0, i64 80
  invoke void @_ZNSt5dequeIN4Json6Reader9ErrorInfoESaIS2_EE16_M_push_back_auxIJRKS2_EEEvDpOT_(ptr noundef nonnull align 8 dereferenceable(80) %40, ptr noundef nonnull align 8 dereferenceable(64) %4)
          to label %_ZNSt5dequeIN4Json6Reader9ErrorInfoESaIS2_EE9push_backERKS2_.exit unwind label %41

_ZNSt5dequeIN4Json6Reader9ErrorInfoESaIS2_EE9push_backERKS2_.exit: ; preds = %.noexc, %39
  call void @_ZNSt7__cxx1112basic_stringIcSt11char_traitsIcESaIcEED1Ev(ptr noundef nonnull align 8 dereferenceable(32) %24) #25
  br label %43

41:                                               ; preds = %39, %33, %17
  %42 = landingpad { ptr, i32 }
          cleanup
  call void @_ZNSt7__cxx1112basic_stringIcSt11char_traitsIcESaIcEED1Ev(ptr noundef nonnull align 8 dereferenceable(32) %24) #25
  resume { ptr, i32 } %42

43:                                               ; preds = %3, %14, %_ZNSt5dequeIN4Json6Reader9ErrorInfoESaIS2_EE9push_backERKS2_.exit
  %.0 = phi i1 [ true, %_ZNSt5dequeIN4Json6Reader9ErrorInfoESaIS2_EE9push_backERKS2_.exit ], [ false, %14 ], [ false, %3 ]
  ret i1 %.0
}